target datalayout = "e-m:e-p270:32:32-p271:32:32-p272:64:64-i64:64-i128:128-f80:128-n8:16:32:64-S128"
target triple = "x86_64-pc-linux-gnu"

%struct._zval_struct = type { %union._zend_value, %union.anon, %union.anon.2 }
%union._zend_value = type { i64 }
%union.anon = type { i32 }
%union.anon.2 = type { i32 }
%struct._zend_array = type { %struct._zend_refcounted_h, %union.anon.4, i32, %union.anon.6, i32, i32, i32, i32, i64, ptr }
%struct._zend_refcounted_h = type { i32, %union.anon.3 }
%union.anon.3 = type { i32 }
%union.anon.4 = type { i32 }
%union.anon.6 = type { ptr }
%struct._zend_string = type { %struct._zend_refcounted_h, i64, i64, [1 x i8] }
%struct.anon.0 = type { i8, i8, %union.anon.1 }
%union.anon.1 = type { i16 }
%struct._phar_archive_data = type { ptr, i32, ptr, i32, ptr, i32, [12 x i8], i64, %struct._zend_array, %struct._zend_array, %struct._zend_array, i32, i32, i32, ptr, ptr, i32, i32, i32, ptr, %struct._phar_metadata_tracker, i32, i16 }
%struct._phar_metadata_tracker = type { %struct._zval_struct, ptr }
%struct._phar_entry_info = type { i32, i32, i32, i32, i32, i32, %struct._phar_metadata_tracker, ptr, i32, i64, i64, i64, ptr, ptr, i32, ptr, ptr, ptr, i8, i32, i16, i16 }
%struct._Bucket = type { %struct._zval_struct, i64, ptr }

; Function Attrs: alwaysinline nounwind uwtable
define internal zeroext i1 @zend_string_starts_with_cstr(ptr noundef %0, ptr noundef %1, i64 noundef %2) #4 {
  %4 = alloca ptr, align 8
  %5 = alloca ptr, align 8
  %6 = alloca i64, align 8
  store ptr %0, ptr %4, align 8, !tbaa !46
  store ptr %1, ptr %5, align 8, !tbaa !49
  store i64 %2, ptr %6, align 8, !tbaa !52
  %7 = load ptr, ptr %4, align 8, !tbaa !46
  %8 = getelementptr inbounds nuw %struct._zend_string, ptr %7, i32 0, i32 2
  %9 = load i64, ptr %8, align 8, !tbaa !47
  %10 = load i64, ptr %6, align 8, !tbaa !52
  %11 = icmp uge i64 %9, %10
  br i1 %11, label %12, label %21

12:                                               ; preds = %3
  %13 = load ptr, ptr %4, align 8, !tbaa !46
  %14 = getelementptr inbounds nuw %struct._zend_string, ptr %13, i32 0, i32 3
  %15 = getelementptr inbounds [1 x i8], ptr %14, i64 0, i64 0
  %16 = load ptr, ptr %5, align 8, !tbaa !49
  %17 = load i64, ptr %6, align 8, !tbaa !52
  %18 = call i32 @memcmp(ptr noundef %15, ptr noundef %16, i64 noundef %17) #18
  %19 = icmp ne i32 %18, 0
  %20 = xor i1 %19, true
  br label %21

21:                                               ; preds = %12, %3
  %22 = phi i1 [ false, %3 ], [ %20, %12 ]
  ret i1 %22
}

; Function Attrs: alwaysinline nounwind uwtable
define internal ptr @zend_hash_find_ptr(ptr noundef %0, ptr noundef %1) #4 {
  %3 = alloca ptr, align 8
  %4 = alloca ptr, align 8
  %5 = alloca ptr, align 8
  %6 = alloca ptr, align 8
  %7 = alloca i32, align 4
  store ptr %0, ptr %4, align 8, !tbaa !59
  store ptr %1, ptr %5, align 8, !tbaa !46
  call void @llvm.lifetime.start.p0(i64 8, ptr %6) #17
  %8 = load ptr, ptr %4, align 8, !tbaa !59
  %9 = load ptr, ptr %5, align 8, !tbaa !46
  %10 = call ptr @zend_hash_find(ptr noundef %8, ptr noundef %9)
  store ptr %10, ptr %6, align 8, !tbaa !9
  %11 = load ptr, ptr %6, align 8, !tbaa !9
  %12 = icmp ne ptr %11, null
  br i1 %12, label %13, label %21

13:                                               ; preds = %2
  %14 = load ptr, ptr %6, align 8, !tbaa !9
  %15 = getelementptr inbounds nuw %struct._zval_struct, ptr %14, i32 0, i32 0
  %16 = load ptr, ptr %15, align 8, !tbaa !13
  %17 = icmp ne ptr %16, null
  call void @llvm.assume(i1 %17)
  %18 = load ptr, ptr %6, align 8, !tbaa !9
  %19 = getelementptr inbounds nuw %struct._zval_struct, ptr %18, i32 0, i32 0
  %20 = load ptr, ptr %19, align 8, !tbaa !13
  store ptr %20, ptr %3, align 8
  store i32 1, ptr %7, align 4
  br label %22

21:                                               ; preds = %2
  store ptr null, ptr %3, align 8
  store i32 1, ptr %7, align 4
  br label %22

22:                                               ; preds = %21, %13
  call void @llvm.lifetime.end.p0(i64 8, ptr %6) #17
  %23 = load ptr, ptr %3, align 8
  ret ptr %23
}

; Function Attrs: alwaysinline nounwind uwtable
define internal zeroext i1 @zend_string_starts_with(ptr noundef %0, ptr noundef %1) #4 {
  %3 = alloca ptr, align 8
  %4 = alloca ptr, align 8
  store ptr %0, ptr %3, align 8, !tbaa !46
  store ptr %1, ptr %4, align 8, !tbaa !46
  %5 = load ptr, ptr %3, align 8, !tbaa !46
  %6 = load ptr, ptr %4, align 8, !tbaa !46
  %7 = getelementptr inbounds nuw %struct._zend_string, ptr %6, i32 0, i32 3
  %8 = getelementptr inbounds [1 x i8], ptr %7, i64 0, i64 0
  %9 = load ptr, ptr %4, align 8, !tbaa !46
  %10 = getelementptr inbounds nuw %struct._zend_string, ptr %9, i32 0, i32 2
  %11 = load i64, ptr %10, align 8, !tbaa !47
  %12 = call zeroext i1 @zend_string_starts_with_cstr(ptr noundef %5, ptr noundef %8, i64 noundef %11)
  ret i1 %12
}

; Function Attrs: alwaysinline nounwind uwtable
define internal zeroext i8 @zval_get_type(ptr noundef %0) #4 {
  %2 = alloca ptr, align 8
  store ptr %0, ptr %2, align 8, !tbaa !9
  %3 = load ptr, ptr %2, align 8, !tbaa !9
  %4 = getelementptr inbounds nuw %struct._zval_struct, ptr %3, i32 0, i32 1
  %5 = getelementptr inbounds nuw %struct.anon.0, ptr %4, i32 0, i32 0
  %6 = load i8, ptr %5, align 8, !tbaa !13
  ret i8 %6
}

; Function Attrs: nounwind uwtable
define internal i32 @extract_helper(ptr noundef %0, ptr noundef %1, ptr noundef %2, i64 noundef %3, i1 noundef zeroext %4, ptr noundef %5) #0 {
  %7 = alloca i32, align 4
  %8 = alloca ptr, align 8
  %9 = alloca ptr, align 8
  %10 = alloca ptr, align 8
  %11 = alloca i64, align 8
  %12 = alloca i8, align 1
  %13 = alloca ptr, align 8
  %14 = alloca i32, align 4
  %15 = alloca ptr, align 8
  %16 = alloca ptr, align 8
  %17 = alloca ptr, align 8
  %18 = alloca ptr, align 8
  %19 = alloca ptr, align 8
  %20 = alloca i32, align 4
  %21 = alloca ptr, align 8
  %22 = alloca ptr, align 8
  %23 = alloca ptr, align 8
  %24 = alloca ptr, align 8
  store ptr %0, ptr %8, align 8, !tbaa !54
  store ptr %1, ptr %9, align 8, !tbaa !46
  store ptr %2, ptr %10, align 8, !tbaa !49
  store i64 %3, ptr %11, align 8, !tbaa !52
  %25 = zext i1 %4 to i8
  store i8 %25, ptr %12, align 1, !tbaa !11
  store ptr %5, ptr %13, align 8, !tbaa !92
  call void @llvm.lifetime.start.p0(i64 4, ptr %14) #17
  store i32 0, ptr %14, align 4, !tbaa !81
  call void @llvm.lifetime.start.p0(i64 8, ptr %15) #17
  %26 = load ptr, ptr %9, align 8, !tbaa !46
  %27 = icmp ne ptr %26, null
  br i1 %27, label %96, label %28

28:                                               ; preds = %6
  br label %29

29:                                               ; preds = %28
  call void @llvm.lifetime.start.p0(i64 8, ptr %16) #17
  %30 = load ptr, ptr %8, align 8, !tbaa !54
  %31 = getelementptr inbounds nuw %struct._phar_archive_data, ptr %30, i32 0, i32 8
  store ptr %31, ptr %16, align 8, !tbaa !59
  call void @llvm.lifetime.start.p0(i64 8, ptr %17) #17
  %32 = load ptr, ptr %16, align 8, !tbaa !59
  %33 = getelementptr inbounds nuw %struct._zend_array, ptr %32, i32 0, i32 3
  %34 = load ptr, ptr %33, align 8, !tbaa !13
  %35 = getelementptr inbounds %struct._Bucket, ptr %34, i64 0
  store ptr %35, ptr %17, align 8, !tbaa !186
  call void @llvm.lifetime.start.p0(i64 8, ptr %18) #17
  %36 = load ptr, ptr %16, align 8, !tbaa !59
  %37 = getelementptr inbounds nuw %struct._zend_array, ptr %36, i32 0, i32 3
  %38 = load ptr, ptr %37, align 8, !tbaa !13
  %39 = load ptr, ptr %16, align 8, !tbaa !59
  %40 = getelementptr inbounds nuw %struct._zend_array, ptr %39, i32 0, i32 4
  %41 = load i32, ptr %40, align 8, !tbaa !113
  %42 = zext i32 %41 to i64
  %43 = getelementptr inbounds nuw %struct._Bucket, ptr %38, i64 %42
  store ptr %43, ptr %18, align 8, !tbaa !186
  %44 = load ptr, ptr %16, align 8, !tbaa !59
  %45 = getelementptr inbounds nuw %struct._zend_array, ptr %44, i32 0, i32 1
  %46 = load i32, ptr %45, align 8, !tbaa !13
  %47 = and i32 %46, 4
  %48 = icmp ne i32 %47, 0
  %49 = xor i1 %48, true
  call void @llvm.assume(i1 %49)
  br label %50

50:                                               ; preds = %87, %29
  %51 = load ptr, ptr %17, align 8, !tbaa !186
  %52 = load ptr, ptr %18, align 8, !tbaa !186
  %53 = icmp ne ptr %51, %52
  br i1 %53, label %54, label %90

54:                                               ; preds = %50
  call void @llvm.lifetime.start.p0(i64 8, ptr %19) #17
  %55 = load ptr, ptr %17, align 8, !tbaa !186
  %56 = getelementptr inbounds nuw %struct._Bucket, ptr %55, i32 0, i32 0
  store ptr %56, ptr %19, align 8, !tbaa !9
  %57 = load ptr, ptr %19, align 8, !tbaa !9
  %58 = call zeroext i8 @zval_get_type(ptr noundef %57)
  %59 = zext i8 %58 to i32
  %60 = icmp eq i32 %59, 0
  %61 = xor i1 %60, true
  %62 = xor i1 %61, true
  %63 = zext i1 %62 to i32
  %64 = sext i32 %63 to i64
  %65 = call i64 @llvm.expect.i64(i64 %64, i64 0)
  %66 = icmp ne i64 %65, 0
  br i1 %66, label %67, label %68

67:                                               ; preds = %54
  store i32 6, ptr %20, align 4
  br label %84

68:                                               ; preds = %54
  %69 = load ptr, ptr %19, align 8, !tbaa !9
  %70 = getelementptr inbounds nuw %struct._zval_struct, ptr %69, i32 0, i32 0
  %71 = load ptr, ptr %70, align 8, !tbaa !13
  store ptr %71, ptr %15, align 8, !tbaa !60
  %72 = load i8, ptr %12, align 1, !tbaa !11, !range !50, !noundef !51
  %73 = trunc i8 %72 to i1
  %74 = load ptr, ptr %15, align 8, !tbaa !60
  %75 = load ptr, ptr %10, align 8, !tbaa !49
  %76 = load i64, ptr %11, align 8, !tbaa !52
  %77 = load ptr, ptr %13, align 8, !tbaa !92
  %78 = call i32 @phar_extract_file(i1 noundef zeroext %73, ptr noundef %74, ptr noundef %75, i64 noundef %76, ptr noundef %77)
  %79 = icmp eq i32 -1, %78
  br i1 %79, label %80, label %81

80:                                               ; preds = %68
  store i32 -1, ptr %7, align 4
  store i32 1, ptr %20, align 4
  br label %84

81:                                               ; preds = %68
  %82 = load i32, ptr %14, align 4, !tbaa !81
  %83 = add nsw i32 %82, 1
  store i32 %83, ptr %14, align 4, !tbaa !81
  store i32 0, ptr %20, align 4
  br label %84

84:                                               ; preds = %81, %80, %67
  call void @llvm.lifetime.end.p0(i64 8, ptr %19) #17
  %85 = load i32, ptr %20, align 4
  switch i32 %85, label %91 [
    i32 0, label %86
    i32 6, label %87
  ]

86:                                               ; preds = %84
  br label %87

87:                                               ; preds = %86, %84
  %88 = load ptr, ptr %17, align 8, !tbaa !186
  %89 = getelementptr inbounds nuw %struct._Bucket, ptr %88, i32 1
  store ptr %89, ptr %17, align 8, !tbaa !186
  br label %50

90:                                               ; preds = %50
  store i32 0, ptr %20, align 4
  br label %91

91:                                               ; preds = %90, %84
  call void @llvm.lifetime.end.p0(i64 8, ptr %18) #17
  call void @llvm.lifetime.end.p0(i64 8, ptr %17) #17
  call void @llvm.lifetime.end.p0(i64 8, ptr %16) #17
  %92 = load i32, ptr %20, align 4
  switch i32 %92, label %209 [
    i32 0, label %93
  ]

93:                                               ; preds = %91
  br label %94

94:                                               ; preds = %93
  br label %95

95:                                               ; preds = %94
  br label %207

96:                                               ; preds = %6
  %97 = load ptr, ptr %9, align 8, !tbaa !46
  %98 = getelementptr inbounds nuw %struct._zend_string, ptr %97, i32 0, i32 2
  %99 = load i64, ptr %98, align 8, !tbaa !47
  %100 = icmp ugt i64 %99, 0
  br i1 %100, label %101, label %187

101:                                              ; preds = %96
  %102 = load ptr, ptr %9, align 8, !tbaa !46
  %103 = getelementptr inbounds nuw %struct._zend_string, ptr %102, i32 0, i32 3
  %104 = load ptr, ptr %9, align 8, !tbaa !46
  %105 = getelementptr inbounds nuw %struct._zend_string, ptr %104, i32 0, i32 2
  %106 = load i64, ptr %105, align 8, !tbaa !47
  %107 = sub i64 %106, 1
  %108 = getelementptr inbounds nuw [1 x i8], ptr %103, i64 0, i64 %107
  %109 = load i8, ptr %108, align 1, !tbaa !13
  %110 = sext i8 %109 to i32
  %111 = icmp eq i32 47, %110
  br i1 %111, label %112, label %187

112:                                              ; preds = %101
  br label %113

113:                                              ; preds = %112
  call void @llvm.lifetime.start.p0(i64 8, ptr %21) #17
  %114 = load ptr, ptr %8, align 8, !tbaa !54
  %115 = getelementptr inbounds nuw %struct._phar_archive_data, ptr %114, i32 0, i32 8
  store ptr %115, ptr %21, align 8, !tbaa !59
  call void @llvm.lifetime.start.p0(i64 8, ptr %22) #17
  %116 = load ptr, ptr %21, align 8, !tbaa !59
  %117 = getelementptr inbounds nuw %struct._zend_array, ptr %116, i32 0, i32 3
  %118 = load ptr, ptr %117, align 8, !tbaa !13
  %119 = getelementptr inbounds %struct._Bucket, ptr %118, i64 0
  store ptr %119, ptr %22, align 8, !tbaa !186
  call void @llvm.lifetime.start.p0(i64 8, ptr %23) #17
  %120 = load ptr, ptr %21, align 8, !tbaa !59
  %121 = getelementptr inbounds nuw %struct._zend_array, ptr %120, i32 0, i32 3
  %122 = load ptr, ptr %121, align 8, !tbaa !13
  %123 = load ptr, ptr %21, align 8, !tbaa !59
  %124 = getelementptr inbounds nuw %struct._zend_array, ptr %123, i32 0, i32 4
  %125 = load i32, ptr %124, align 8, !tbaa !113
  %126 = zext i32 %125 to i64
  %127 = getelementptr inbounds nuw %struct._Bucket, ptr %122, i64 %126
  store ptr %127, ptr %23, align 8, !tbaa !186
  %128 = load ptr, ptr %21, align 8, !tbaa !59
  %129 = getelementptr inbounds nuw %struct._zend_array, ptr %128, i32 0, i32 1
  %130 = load i32, ptr %129, align 8, !tbaa !13
  %131 = and i32 %130, 4
  %132 = icmp ne i32 %131, 0
  %133 = xor i1 %132, true
  call void @llvm.assume(i1 %133)
  br label %134

134:                                              ; preds = %178, %113
  %135 = load ptr, ptr %22, align 8, !tbaa !186
  %136 = load ptr, ptr %23, align 8, !tbaa !186
  %137 = icmp ne ptr %135, %136
  br i1 %137, label %138, label %181

138:                                              ; preds = %134
  call void @llvm.lifetime.start.p0(i64 8, ptr %24) #17
  %139 = load ptr, ptr %22, align 8, !tbaa !186
  %140 = getelementptr inbounds nuw %struct._Bucket, ptr %139, i32 0, i32 0
  store ptr %140, ptr %24, align 8, !tbaa !9
  %141 = load ptr, ptr %24, align 8, !tbaa !9
  %142 = call zeroext i8 @zval_get_type(ptr noundef %141)
  %143 = zext i8 %142 to i32
  %144 = icmp eq i32 %143, 0
  %145 = xor i1 %144, true
  %146 = xor i1 %145, true
  %147 = zext i1 %146 to i32
  %148 = sext i32 %147 to i64
  %149 = call i64 @llvm.expect.i64(i64 %148, i64 0)
  %150 = icmp ne i64 %149, 0
  br i1 %150, label %151, label %152

151:                                              ; preds = %138
  store i32 11, ptr %20, align 4
  br label %175

152:                                              ; preds = %138
  %153 = load ptr, ptr %24, align 8, !tbaa !9
  %154 = getelementptr inbounds nuw %struct._zval_struct, ptr %153, i32 0, i32 0
  %155 = load ptr, ptr %154, align 8, !tbaa !13
  store ptr %155, ptr %15, align 8, !tbaa !60
  %156 = load ptr, ptr %15, align 8, !tbaa !60
  %157 = getelementptr inbounds nuw %struct._phar_entry_info, ptr %156, i32 0, i32 7
  %158 = load ptr, ptr %157, align 8, !tbaa !192
  %159 = load ptr, ptr %9, align 8, !tbaa !46
  %160 = call zeroext i1 @zend_string_starts_with(ptr noundef %158, ptr noundef %159)
  br i1 %160, label %162, label %161

161:                                              ; preds = %152
  store i32 11, ptr %20, align 4
  br label %175

162:                                              ; preds = %152
  %163 = load i8, ptr %12, align 1, !tbaa !11, !range !50, !noundef !51
  %164 = trunc i8 %163 to i1
  %165 = load ptr, ptr %15, align 8, !tbaa !60
  %166 = load ptr, ptr %10, align 8, !tbaa !49
  %167 = load i64, ptr %11, align 8, !tbaa !52
  %168 = load ptr, ptr %13, align 8, !tbaa !92
  %169 = call i32 @phar_extract_file(i1 noundef zeroext %164, ptr noundef %165, ptr noundef %166, i64 noundef %167, ptr noundef %168)
  %170 = icmp eq i32 -1, %169
  br i1 %170, label %171, label %172

171:                                              ; preds = %162
  store i32 -1, ptr %7, align 4
  store i32 1, ptr %20, align 4
  br label %175

172:                                              ; preds = %162
  %173 = load i32, ptr %14, align 4, !tbaa !81
  %174 = add nsw i32 %173, 1
  store i32 %174, ptr %14, align 4, !tbaa !81
  store i32 0, ptr %20, align 4
  br label %175

175:                                              ; preds = %172, %171, %161, %151
  call void @llvm.lifetime.end.p0(i64 8, ptr %24) #17
  %176 = load i32, ptr %20, align 4
  switch i32 %176, label %182 [
    i32 0, label %177
    i32 11, label %178
  ]

177:                                              ; preds = %175
  br label %178

178:                                              ; preds = %177, %175
  %179 = load ptr, ptr %22, align 8, !tbaa !186
  %180 = getelementptr inbounds nuw %struct._Bucket, ptr %179, i32 1
  store ptr %180, ptr %22, align 8, !tbaa !186
  br label %134

181:                                              ; preds = %134
  store i32 0, ptr %20, align 4
  br label %182

182:                                              ; preds = %181, %175
  call void @llvm.lifetime.end.p0(i64 8, ptr %23) #17
  call void @llvm.lifetime.end.p0(i64 8, ptr %22) #17
  call void @llvm.lifetime.end.p0(i64 8, ptr %21) #17
  %183 = load i32, ptr %20, align 4
  switch i32 %183, label %209 [
    i32 0, label %184
  ]

184:                                              ; preds = %182
  br label %185

185:                                              ; preds = %184
  br label %186

186:                                              ; preds = %185
  br label %206

187:                                              ; preds = %101, %96
  %188 = load ptr, ptr %8, align 8, !tbaa !54
  %189 = getelementptr inbounds nuw %struct._phar_archive_data, ptr %188, i32 0, i32 8
  %190 = load ptr, ptr %9, align 8, !tbaa !46
  %191 = call ptr @zend_hash_find_ptr(ptr noundef %189, ptr noundef %190)
  store ptr %191, ptr %15, align 8, !tbaa !60
  %192 = load ptr, ptr %15, align 8, !tbaa !60
  %193 = icmp eq ptr null, %192
  br i1 %193, label %194, label %195

194:                                              ; preds = %187
  store i32 0, ptr %7, align 4
  store i32 1, ptr %20, align 4
  br label %209

195:                                              ; preds = %187
  %196 = load i8, ptr %12, align 1, !tbaa !11, !range !50, !noundef !51
  %197 = trunc i8 %196 to i1
  %198 = load ptr, ptr %15, align 8, !tbaa !60
  %199 = load ptr, ptr %10, align 8, !tbaa !49
  %200 = load i64, ptr %11, align 8, !tbaa !52
  %201 = load ptr, ptr %13, align 8, !tbaa !92
  %202 = call i32 @phar_extract_file(i1 noundef zeroext %197, ptr noundef %198, ptr noundef %199, i64 noundef %200, ptr noundef %201)
  %203 = icmp eq i32 -1, %202
  br i1 %203, label %204, label %205

204:                                              ; preds = %195
  store i32 -1, ptr %7, align 4
  store i32 1, ptr %20, align 4
  br label %209

205:                                              ; preds = %195
  store i32 1, ptr %7, align 4
  store i32 1, ptr %20, align 4
  br label %209

206:                                              ; preds = %186
  br label %207

207:                                              ; preds = %206, %95
  %208 = load i32, ptr %14, align 4, !tbaa !81
  store i32 %208, ptr %7, align 4
  store i32 1, ptr %20, align 4
  br label %209

209:                                              ; preds = %207, %205, %204, %194, %182, %91
  call void @llvm.lifetime.end.p0(i64 8, ptr %15) #17
  call void @llvm.lifetime.end.p0(i64 4, ptr %14) #17
  %210 = load i32, ptr %7, align 4
  ret i32 %210
}