; Function Attrs: nounwind uwtable
define internal fastcc i32 @extract_helper(ptr noundef %0, ptr noundef %1, ptr noundef %2, i64 noundef %3, i1 noundef zeroext %4, ptr noundef nonnull %5) unnamed_addr #0 {
  %.not = icmp eq ptr %1, null
  br i1 %.not, label %7, label %27

7:                                                ; preds = %6
  %8 = getelementptr inbounds nuw i8, ptr %0, i64 80
  %9 = load ptr, ptr %8, align 8, !tbaa !8
  %10 = getelementptr inbounds nuw i8, ptr %0, i64 88
  %11 = load i32, ptr %10, align 8, !tbaa !103
  %12 = zext i32 %11 to i64
  %13 = getelementptr inbounds nuw %struct._Bucket, ptr %9, i64 %12
  %14 = getelementptr inbounds nuw i8, ptr %0, i64 72
  %15 = load i32, ptr %14, align 8, !tbaa !8
  %16 = and i32 %15, 4
  %.not70 = icmp eq i32 %16, 0
  tail call void @llvm.assume(i1 %.not70)
  %.not71103 = icmp eq i32 %11, 0
  br i1 %.not71103, label %.thread81, label %.lr.ph106

.lr.ph106:                                        ; preds = %7, %25
  %.054105 = phi i32 [ %.155.ph, %25 ], [ 0, %7 ]
  %.066104 = phi ptr [ %26, %25 ], [ %9, %7 ]
  %17 = getelementptr inbounds nuw i8, ptr %.066104, i64 8
  %18 = load i8, ptr %17, align 8, !tbaa !8
  %19 = icmp eq i8 %18, 0
  br i1 %19, label %25, label %20, !prof !53

20:                                               ; preds = %.lr.ph106
  %21 = load ptr, ptr %.066104, align 8, !tbaa !8
  %22 = tail call fastcc i32 @phar_extract_file(i1 noundef zeroext %4, ptr noundef %21, ptr noundef %2, i64 noundef %3, ptr noundef %5)
  %23 = icmp eq i32 %22, -1
  %24 = add nsw i32 %.054105, 1
  br i1 %23, label %.thread81, label %25

25:                                               ; preds = %.lr.ph106, %20
  %.155.ph = phi i32 [ %24, %20 ], [ %.054105, %.lr.ph106 ]
  %26 = getelementptr inbounds nuw i8, ptr %.066104, i64 32
  %.not71 = icmp eq ptr %26, %13
  br i1 %.not71, label %.thread81, label %.lr.ph106

27:                                               ; preds = %6
  %28 = getelementptr inbounds nuw i8, ptr %1, i64 16
  %29 = load i64, ptr %28, align 8, !tbaa !45
  %.not72 = icmp eq i64 %29, 0
  br i1 %.not72, label %62, label %30

30:                                               ; preds = %27
  %31 = getelementptr inbounds nuw i8, ptr %1, i64 24
  %32 = add i64 %29, -1
  %33 = getelementptr inbounds nuw [1 x i8], ptr %31, i64 0, i64 %32
  %34 = load i8, ptr %33, align 1, !tbaa !8
  %35 = icmp eq i8 %34, 47
  br i1 %35, label %36, label %62

36:                                               ; preds = %30
  %37 = getelementptr inbounds nuw i8, ptr %0, i64 80
  %38 = load ptr, ptr %37, align 8, !tbaa !8
  %39 = getelementptr inbounds nuw i8, ptr %0, i64 88
  %40 = load i32, ptr %39, align 8, !tbaa !103
  %41 = zext i32 %40 to i64
  %42 = getelementptr inbounds nuw %struct._Bucket, ptr %38, i64 %41
  %43 = getelementptr inbounds nuw i8, ptr %0, i64 72
  %44 = load i32, ptr %43, align 8, !tbaa !8
  %45 = and i32 %44, 4
  %.not73 = icmp eq i32 %45, 0
  tail call void @llvm.assume(i1 %.not73)
  %.not7498 = icmp eq i32 %40, 0
  br i1 %.not7498, label %.thread81, label %.lr.ph

.lr.ph:                                           ; preds = %36, %zend_string_starts_with.exit.thread
  %.458100 = phi i32 [ %.559.ph, %zend_string_starts_with.exit.thread ], [ 0, %36 ]
  %.06199 = phi ptr [ %61, %zend_string_starts_with.exit.thread ], [ %38, %36 ]
  %46 = getelementptr inbounds nuw i8, ptr %.06199, i64 8
  %47 = load i8, ptr %46, align 8, !tbaa !8
  %48 = icmp eq i8 %47, 0
  br i1 %48, label %zend_string_starts_with.exit.thread, label %49, !prof !53

49:                                               ; preds = %.lr.ph
  %50 = load ptr, ptr %.06199, align 8, !tbaa !8
  %51 = getelementptr inbounds nuw i8, ptr %50, i64 48
  %52 = load ptr, ptr %51, align 8, !tbaa !174
  %53 = load i64, ptr %28, align 8, !tbaa !45
  %54 = getelementptr inbounds nuw i8, ptr %52, i64 16
  %55 = load i64, ptr %54, align 8, !tbaa !45
  %.not.i.i = icmp ult i64 %55, %53
  br i1 %.not.i.i, label %zend_string_starts_with.exit.thread, label %zend_string_starts_with.exit

zend_string_starts_with.exit:                     ; preds = %49
  %56 = getelementptr inbounds nuw i8, ptr %52, i64 24
  %bcmp.i.i = tail call i32 @bcmp(ptr nonnull %56, ptr nonnull %31, i64 %53)
  %.not4.i.i = icmp eq i32 %bcmp.i.i, 0
  br i1 %.not4.i.i, label %57, label %zend_string_starts_with.exit.thread

57:                                               ; preds = %zend_string_starts_with.exit
  %58 = tail call fastcc i32 @phar_extract_file(i1 noundef zeroext %4, ptr noundef nonnull %50, ptr noundef %2, i64 noundef %3, ptr noundef %5)
  %59 = icmp eq i32 %58, -1
  %60 = add nsw i32 %.458100, 1
  br i1 %59, label %.thread81, label %zend_string_starts_with.exit.thread

zend_string_starts_with.exit.thread:              ; preds = %49, %.lr.ph, %zend_string_starts_with.exit, %57
  %.559.ph = phi i32 [ %60, %57 ], [ %.458100, %zend_string_starts_with.exit ], [ %.458100, %.lr.ph ], [ %.458100, %49 ]
  %61 = getelementptr inbounds nuw i8, ptr %.06199, i64 32
  %.not74 = icmp eq ptr %61, %42
  br i1 %.not74, label %.thread81, label %.lr.ph

62:                                               ; preds = %30, %27
  %63 = getelementptr inbounds nuw i8, ptr %0, i64 64
  %64 = tail call ptr @zend_hash_find(ptr noundef nonnull %63, ptr noundef nonnull %1) #20
  %.not.i = icmp eq ptr %64, null
  br i1 %.not.i, label %.thread81, label %65

65:                                               ; preds = %62
  %66 = load ptr, ptr %64, align 8, !tbaa !8, !nonnull !49, !noundef !49
  %67 = tail call fastcc i32 @phar_extract_file(i1 noundef zeroext %4, ptr noundef nonnull %66, ptr noundef %2, i64 noundef %3, ptr noundef %5)
  %68 = icmp eq i32 %67, -1
  %. = select i1 %68, i32 -1, i32 1
  br label %.thread81

.thread81:                                        ; preds = %57, %zend_string_starts_with.exit.thread, %20, %25, %36, %7, %62, %65
  %.3 = phi i32 [ %., %65 ], [ 0, %62 ], [ 0, %7 ], [ 0, %36 ], [ -1, %20 ], [ %.155.ph, %25 ], [ -1, %57 ], [ %.559.ph, %zend_string_starts_with.exit.thread ]
  ret i32 %.3
}